target datalayout = "e-m:e-p270:32:32-p271:32:32-p272:64:64-i64:64-i128:128-f80:128-n8:16:32:64-S128"
target triple = "x86_64-pc-linux-gnu"

%"class.cvc5::internal::prop::SatLiteral" = type { i64 }
%"class.cvc5::internal::NodeTemplate" = type { ptr }
%"class.cvc5::internal::NodeTemplate.484" = type { ptr }
%"class.std::__cxx11::basic_string" = type { %"struct.std::__cxx11::basic_string<char>::_Alloc_hider", i64, %union.anon }
%"struct.std::__cxx11::basic_string<char>::_Alloc_hider" = type { ptr }
%union.anon = type { i64, [8 x i8] }
%"class.cvc5::internal::prop::PropEngine" = type { %"class.cvc5::internal::EnvObj", i8, ptr, %"class.std::unique_ptr", ptr, ptr, %"class.std::vector", ptr, %"class.cvc5::internal::CDProof", %"class.std::unique_ptr.15", i8, [7 x i8], %"class.cvc5::context::CDList", %"struct.cvc5::internal::prop::PropEngine::Statistics" }
%"class.cvc5::internal::EnvObj" = type { ptr, ptr }
%"class.std::unique_ptr" = type { %"struct.std::__uniq_ptr_data" }
%"struct.std::__uniq_ptr_data" = type { %"class.std::__uniq_ptr_impl" }
%"class.std::__uniq_ptr_impl" = type { %"class.std::tuple" }
%"class.std::tuple" = type { %"struct.std::_Tuple_impl" }
%"struct.std::_Tuple_impl" = type { %"struct.std::_Head_base.1" }
%"struct.std::_Head_base.1" = type { ptr }
%"class.std::vector" = type { %"struct.std::_Vector_base" }
%"struct.std::_Vector_base" = type { %"struct.std::_Vector_base<cvc5::internal::NodeTemplate<true>, std::allocator<cvc5::internal::NodeTemplate<true>>>::_Vector_impl" }
%"struct.std::_Vector_base<cvc5::internal::NodeTemplate<true>, std::allocator<cvc5::internal::NodeTemplate<true>>>::_Vector_impl" = type { %"struct.std::_Vector_base<cvc5::internal::NodeTemplate<true>, std::allocator<cvc5::internal::NodeTemplate<true>>>::_Vector_impl_data" }
%"struct.std::_Vector_base<cvc5::internal::NodeTemplate<true>, std::allocator<cvc5::internal::NodeTemplate<true>>>::_Vector_impl_data" = type { ptr, ptr, ptr }
%"class.cvc5::internal::CDProof" = type <{ %"class.cvc5::internal::EnvObj", %"class.cvc5::internal::ProofGenerator", %"class.cvc5::context::Context", %"class.cvc5::context::CDHashMap", %"class.std::__cxx11::basic_string", i8, [7 x i8] }>
%"class.cvc5::internal::ProofGenerator" = type { ptr }
%"class.cvc5::context::Context" = type { ptr, %"class.std::vector.2", ptr, ptr }
%"class.std::vector.2" = type { %"struct.std::_Vector_base.3" }
%"struct.std::_Vector_base.3" = type { %"struct.std::_Vector_base<cvc5::context::Scope *, std::allocator<cvc5::context::Scope *>>::_Vector_impl" }
%"struct.std::_Vector_base<cvc5::context::Scope *, std::allocator<cvc5::context::Scope *>>::_Vector_impl" = type { %"struct.std::_Vector_base<cvc5::context::Scope *, std::allocator<cvc5::context::Scope *>>::_Vector_impl_data" }
%"struct.std::_Vector_base<cvc5::context::Scope *, std::allocator<cvc5::context::Scope *>>::_Vector_impl_data" = type { ptr, ptr, ptr }
%"class.cvc5::context::CDHashMap" = type { %"class.cvc5::context::ContextObj", %"class.std::unordered_map", ptr, ptr }
%"class.cvc5::context::ContextObj" = type { ptr, ptr, ptr, ptr, ptr }
%"class.std::unordered_map" = type { %"class.std::_Hashtable" }
%"class.std::_Hashtable" = type { ptr, i64, %"struct.std::__detail::_Hash_node_base", i64, %"struct.std::__detail::_Prime_rehash_policy", ptr }
%"struct.std::__detail::_Hash_node_base" = type { ptr }
%"struct.std::__detail::_Prime_rehash_policy" = type { float, i64 }
%"class.std::unique_ptr.15" = type { %"struct.std::__uniq_ptr_data.16" }
%"struct.std::__uniq_ptr_data.16" = type { %"class.std::__uniq_ptr_impl.17" }
%"class.std::__uniq_ptr_impl.17" = type { %"class.std::tuple.18" }
%"class.std::tuple.18" = type { %"struct.std::_Tuple_impl.19" }
%"struct.std::_Tuple_impl.19" = type { %"struct.std::_Head_base.22" }
%"struct.std::_Head_base.22" = type { ptr }
%"class.cvc5::context::CDList" = type <{ %"class.cvc5::context::ContextObj", %"class.std::vector", i64, i8, [7 x i8] }>
%"struct.cvc5::internal::prop::PropEngine::Statistics" = type { %"class.cvc5::internal::IntStat" }
%"class.cvc5::internal::IntStat" = type { %"class.cvc5::internal::ValueStat" }
%"class.cvc5::internal::ValueStat" = type { ptr }

; Function Attrs: mustprogress nounwind uwtable
define linkonce_odr hidden void @_ZN4cvc58internal12NodeTemplateILb0EED2Ev(ptr noundef nonnull align 8 dereferenceable(8) %0) unnamed_addr #4 comdat align 2 {
  %2 = alloca ptr, align 8
  store ptr %0, ptr %2, align 8, !tbaa !351
  ret void
}

; Function Attrs: mustprogress nounwind uwtable
define linkonce_odr hidden noundef i64 @_ZNK4cvc58internal4prop10SatLiteral14getSatVariableEv(ptr noundef nonnull align 8 dereferenceable(8) %0) #4 comdat align 2 {
  %2 = alloca ptr, align 8
  store ptr %0, ptr %2, align 8, !tbaa !3
  %3 = load ptr, ptr %2, align 8
  %4 = getelementptr inbounds nuw %"class.cvc5::internal::prop::SatLiteral", ptr %3, i32 0, i32 0
  %5 = load i64, ptr %4, align 8, !tbaa !14
  %6 = lshr i64 %5, 1
  ret i64 %6
}

; Function Attrs: mustprogress nounwind uwtable
define linkonce_odr hidden void @_ZN4cvc58internal12NodeTemplateILb0EEC2ERKNS1_ILb1EEE(ptr noundef nonnull align 8 dereferenceable(8) %0, ptr noundef nonnull align 8 dereferenceable(8) %1) unnamed_addr #4 comdat align 2 {
  %3 = alloca ptr, align 8
  %4 = alloca ptr, align 8
  store ptr %0, ptr %3, align 8, !tbaa !351
  store ptr %1, ptr %4, align 8, !tbaa !353
  %5 = load ptr, ptr %3, align 8
  %6 = load ptr, ptr %4, align 8, !tbaa !353
  %7 = getelementptr inbounds nuw %"class.cvc5::internal::NodeTemplate", ptr %6, i32 0, i32 0
  %8 = load ptr, ptr %7, align 8, !tbaa !354
  %9 = getelementptr inbounds nuw %"class.cvc5::internal::NodeTemplate.484", ptr %5, i32 0, i32 0
  store ptr %8, ptr %9, align 8, !tbaa !357
  ret void
}

; Function Attrs: mustprogress uwtable
define hidden noundef zeroext i1 @_ZNK4cvc58internal4prop10PropEngine10isDecisionENS0_12NodeTemplateILb1EEE(ptr noundef nonnull align 8 dereferenceable(416) %0, ptr noundef %1) #6 align 2 personality ptr @__gxx_personality_v0 {
  %3 = alloca ptr, align 8
  %4 = alloca ptr, align 8
  %5 = alloca %"class.cvc5::internal::prop::SatLiteral", align 8
  %6 = alloca %"class.cvc5::internal::NodeTemplate.484", align 8
  %7 = alloca ptr, align 8
  %8 = alloca i32, align 4
  store ptr %0, ptr %3, align 8, !tbaa !16
  store ptr %1, ptr %4, align 8, !tbaa !353
  %9 = load ptr, ptr %3, align 8
  %10 = getelementptr inbounds nuw %"class.cvc5::internal::prop::PropEngine", ptr %9, i32 0, i32 5
  %11 = load ptr, ptr %10, align 8, !tbaa !85
  call void @llvm.lifetime.start.p0(i64 8, ptr %5) #3
  %12 = getelementptr inbounds nuw %"class.cvc5::internal::prop::PropEngine", ptr %9, i32 0, i32 7
  %13 = load ptr, ptr %12, align 8, !tbaa !86
  call void @_ZN4cvc58internal12NodeTemplateILb0EEC2ERKNS1_ILb1EEE(ptr noundef nonnull align 8 dereferenceable(8) %6, ptr noundef nonnull align 8 dereferenceable(8) %1)
  %14 = invoke i64 @_ZN4cvc58internal4prop9CnfStream10getLiteralENS0_12NodeTemplateILb0EEE(ptr noundef nonnull align 8 dereferenceable(352) %13, ptr noundef %6)
          to label %15 unwind label %24

15:                                               ; preds = %2
  %16 = getelementptr inbounds nuw %"class.cvc5::internal::prop::SatLiteral", ptr %5, i32 0, i32 0
  store i64 %14, ptr %16, align 8
  %17 = invoke noundef i64 @_ZNK4cvc58internal4prop10SatLiteral14getSatVariableEv(ptr noundef nonnull align 8 dereferenceable(8) %5)
          to label %18 unwind label %24

18:                                               ; preds = %15
  %19 = load ptr, ptr %11, align 8, !tbaa !22
  %20 = getelementptr inbounds ptr, ptr %19, i64 23
  %21 = load ptr, ptr %20, align 8
  %22 = invoke noundef zeroext i1 %21(ptr noundef nonnull align 8 dereferenceable(8) %11, i64 noundef %17)
          to label %23 unwind label %24

23:                                               ; preds = %18
  call void @_ZN4cvc58internal12NodeTemplateILb0EED2Ev(ptr noundef nonnull align 8 dereferenceable(8) %6) #3
  call void @llvm.lifetime.end.p0(i64 8, ptr %5) #3
  ret i1 %22

24:                                               ; preds = %18, %15, %2
  %25 = landingpad { ptr, i32 }
          cleanup
  %26 = extractvalue { ptr, i32 } %25, 0
  store ptr %26, ptr %7, align 8
  %27 = extractvalue { ptr, i32 } %25, 1
  store i32 %27, ptr %8, align 4
  call void @_ZN4cvc58internal12NodeTemplateILb0EED2Ev(ptr noundef nonnull align 8 dereferenceable(8) %6) #3
  call void @llvm.lifetime.end.p0(i64 8, ptr %5) #3
  br label %28

28:                                               ; preds = %24
  %29 = load ptr, ptr %7, align 8
  %30 = load i32, ptr %8, align 4
  %31 = insertvalue { ptr, i32 } poison, ptr %29, 0
  %32 = insertvalue { ptr, i32 } %31, i32 %30, 1
  resume { ptr, i32 } %32
}